target datalayout = "e-m:e-p270:32:32-p271:32:32-p272:64:64-i64:64-i128:128-f80:128-n8:16:32:64-S128"
target triple = "x86_64-pc-linux-gnu"

%struct.json_dumper = type { ptr, ptr, i32, i32, i32, i32, [1100 x i8] }
%struct.nstime_t = type { i64, i32 }
%struct.epan_column_info = type { ptr, i32, ptr, ptr, ptr, %struct.col_expr_t, i8, ptr }
%struct.col_expr_t = type { ptr, ptr }
%struct.color_t = type { i16, i16, i16 }
%struct._frame_data = type <{ i32, i32, i32, i32, i32, [4 x i8], i64, ptr, ptr, ptr, i8, i16, [5 x i8], %struct.nstime_t, %struct.nstime_t, i32, i32 }>
%struct._address = type { i32, i32, ptr, ptr }
%struct.epan_dissect = type { ptr, ptr, ptr, %struct._packet_info }
%struct._packet_info = type { ptr, ptr, i32, i32, %struct.nstime_t, %struct.nstime_t, %struct.nstime_t, i8, ptr, ptr, ptr, ptr, %struct._address, %struct._address, %struct._address, %struct._address, %struct._address, %struct._address, i32, ptr, i8, [3 x i8], %struct.anon.4, i32, i32, i32, i32, ptr, i8, ptr, ptr, i16, i16, i32, i32, i16, i32, i32, ptr, ptr, ptr, i8, i8, i16, i16, i16, i32, i16, i16, ptr, ptr, ptr, ptr, ptr, i32, i32 }
%struct.anon.4 = type { i8, [3 x i8] }
%struct._color_filter = type { ptr, ptr, %struct.color_t, %struct.color_t, i8, ptr }

@dumper = internal global %struct.json_dumper zeroinitializer, align 8
@.str.110 = private unnamed_addr constant [5 x i8] c"true\00", align 1
@.str.123 = private unnamed_addr constant [3 x i8] c"%u\00", align 1
@.str.195 = private unnamed_addr constant [2 x i8] c"c\00", align 1
@.str.196 = private unnamed_addr constant [4 x i8] c"num\00", align 1
@.str.197 = private unnamed_addr constant [3 x i8] c"ct\00", align 1
@.str.198 = private unnamed_addr constant [9 x i8] c"comments\00", align 1
@.str.199 = private unnamed_addr constant [2 x i8] c"i\00", align 1
@.str.200 = private unnamed_addr constant [2 x i8] c"m\00", align 1
@.str.201 = private unnamed_addr constant [3 x i8] c"bg\00", align 1
@.str.202 = private unnamed_addr constant [5 x i8] c"%06x\00", align 1
@.str.203 = private unnamed_addr constant [3 x i8] c"fg\00", align 1

; Function Attrs: inlinehint nounwind null_pointer_is_valid sspstrong uwtable
define internal i32 @color_t_to_rgb(ptr noundef %0) #16 {
  %2 = alloca ptr, align 8
  store ptr %0, ptr %2, align 8
  %3 = load ptr, ptr %2, align 8
  %4 = getelementptr inbounds nuw %struct.color_t, ptr %3, i32 0, i32 0
  %5 = load i16, ptr %4, align 2
  %6 = zext i16 %5 to i32
  %7 = ashr i32 %6, 8
  %8 = shl i32 %7, 16
  %9 = load ptr, ptr %2, align 8
  %10 = getelementptr inbounds nuw %struct.color_t, ptr %9, i32 0, i32 1
  %11 = load i16, ptr %10, align 2
  %12 = zext i16 %11 to i32
  %13 = ashr i32 %12, 8
  %14 = shl i32 %13, 8
  %15 = or i32 %8, %14
  %16 = load ptr, ptr %2, align 8
  %17 = getelementptr inbounds nuw %struct.color_t, ptr %16, i32 0, i32 2
  %18 = load i16, ptr %17, align 2
  %19 = zext i16 %18 to i32
  %20 = ashr i32 %19, 8
  %21 = or i32 %15, %20
  ret i32 %21
}

; Function Attrs: null_pointer_is_valid sspstrong uwtable
define internal void @sharkd_json_array_close() #0 {
  call void @json_dumper_end_array(ptr noundef @dumper)
  ret void
}

; Function Attrs: null_pointer_is_valid sspstrong uwtable
define internal void @sharkd_json_value_string(ptr noundef %0, ptr noundef %1) #0 {
  %3 = alloca ptr, align 8
  %4 = alloca ptr, align 8
  store ptr %0, ptr %3, align 8
  store ptr %1, ptr %4, align 8
  %5 = load ptr, ptr %3, align 8
  %6 = icmp ne ptr %5, null
  br i1 %6, label %7, label %9

7:                                                ; preds = %2
  %8 = load ptr, ptr %3, align 8
  call void @json_dumper_set_member_name(ptr noundef @dumper, ptr noundef %8)
  br label %9

9:                                                ; preds = %7, %2
  %10 = load ptr, ptr %4, align 8
  call void @json_dumper_value_string(ptr noundef @dumper, ptr noundef %10)
  ret void
}

; Function Attrs: null_pointer_is_valid sspstrong uwtable
define internal void @sharkd_json_array_open(ptr noundef %0) #0 {
  %2 = alloca ptr, align 8
  store ptr %0, ptr %2, align 8
  %3 = load ptr, ptr %2, align 8
  %4 = icmp ne ptr %3, null
  br i1 %4, label %5, label %7

5:                                                ; preds = %1
  %6 = load ptr, ptr %2, align 8
  call void @json_dumper_set_member_name(ptr noundef @dumper, ptr noundef %6)
  br label %7

7:                                                ; preds = %5, %1
  call void @json_dumper_begin_array(ptr noundef @dumper)
  ret void
}

; Function Attrs: null_pointer_is_valid sspstrong uwtable
define internal void @sharkd_session_process_frames_cb(ptr noundef %0, ptr noundef %1, ptr noundef %2, ptr noundef %3, ptr noundef %4) #0 {
  %6 = alloca ptr, align 8
  %7 = alloca ptr, align 8
  %8 = alloca ptr, align 8
  %9 = alloca ptr, align 8
  %10 = alloca ptr, align 8
  %11 = alloca ptr, align 8
  %12 = alloca ptr, align 8
  %13 = alloca ptr, align 8
  %14 = alloca i32, align 4
  %15 = alloca ptr, align 8
  %16 = alloca i32, align 4
  store ptr %0, ptr %6, align 8
  store ptr %1, ptr %7, align 8
  store ptr %2, ptr %8, align 8
  store ptr %3, ptr %9, align 8
  store ptr %4, ptr %10, align 8
  call void @llvm.lifetime.start.p0(i64 8, ptr %11) #21
  %17 = load ptr, ptr %6, align 8
  %18 = getelementptr inbounds nuw %struct.epan_dissect, ptr %17, i32 0, i32 3
  store ptr %18, ptr %11, align 8
  call void @llvm.lifetime.start.p0(i64 8, ptr %12) #21
  %19 = load ptr, ptr %11, align 8
  %20 = getelementptr inbounds nuw %struct._packet_info, ptr %19, i32 0, i32 8
  %21 = load ptr, ptr %20, align 8
  store ptr %21, ptr %12, align 8
  call void @llvm.lifetime.start.p0(i64 8, ptr %13) #21
  store ptr null, ptr %13, align 8
  call void @llvm.lifetime.start.p0(i64 4, ptr %14) #21
  call void @llvm.lifetime.start.p0(i64 8, ptr %15) #21
  store ptr null, ptr %15, align 8
  call void @json_dumper_begin_object(ptr noundef @dumper)
  call void @sharkd_json_array_open(ptr noundef @.str.195)
  call void @llvm.lifetime.start.p0(i64 4, ptr %16) #21
  store i32 0, ptr %16, align 4
  br label %22

22:                                               ; preds = %33, %5
  %23 = load i32, ptr %16, align 4
  %24 = load ptr, ptr %8, align 8
  %25 = getelementptr inbounds nuw %struct.epan_column_info, ptr %24, i32 0, i32 1
  %26 = load i32, ptr %25, align 8
  %27 = icmp slt i32 %23, %26
  br i1 %27, label %29, label %28

28:                                               ; preds = %22
  call void @llvm.lifetime.end.p0(i64 4, ptr %16) #21
  br label %36

29:                                               ; preds = %22
  %30 = load ptr, ptr %8, align 8
  %31 = load i32, ptr %16, align 4
  %32 = call ptr @get_column_text(ptr noundef %30, i32 noundef %31)
  call void @sharkd_json_value_string(ptr noundef null, ptr noundef %32)
  br label %33

33:                                               ; preds = %29
  %34 = load i32, ptr %16, align 4
  %35 = add i32 %34, 1
  store i32 %35, ptr %16, align 4
  br label %22, !llvm.loop !45

36:                                               ; preds = %28
  call void @sharkd_json_array_close()
  %37 = load ptr, ptr %11, align 8
  %38 = getelementptr inbounds nuw %struct._packet_info, ptr %37, i32 0, i32 3
  %39 = load i32, ptr %38, align 4
  call void (ptr, ptr, ...) @sharkd_json_value_anyf(ptr noundef @.str.196, ptr noundef @.str.123, i32 noundef %39)
  %40 = load ptr, ptr %12, align 8
  %41 = call ptr @sharkd_get_packet_block(ptr noundef %40)
  store ptr %41, ptr %13, align 8
  %42 = load ptr, ptr %13, align 8
  %43 = icmp ne ptr %42, null
  br i1 %43, label %44, label %60

44:                                               ; preds = %36
  %45 = load ptr, ptr %13, align 8
  %46 = call i32 @wtap_block_get_nth_string_option_value(ptr noundef %45, i32 noundef 1, i32 noundef 0, ptr noundef %15)
  %47 = icmp eq i32 0, %46
  br i1 %47, label %48, label %60

48:                                               ; preds = %44
  call void (ptr, ptr, ...) @sharkd_json_value_anyf(ptr noundef @.str.197, ptr noundef @.str.110)
  call void @sharkd_json_array_open(ptr noundef @.str.198)
  store i32 0, ptr %14, align 4
  br label %49

49:                                               ; preds = %56, %48
  %50 = load ptr, ptr %13, align 8
  %51 = load i32, ptr %14, align 4
  %52 = call i32 @wtap_block_get_nth_string_option_value(ptr noundef %50, i32 noundef 1, i32 noundef %51, ptr noundef %15)
  %53 = icmp eq i32 %52, 0
  br i1 %53, label %54, label %59

54:                                               ; preds = %49
  %55 = load ptr, ptr %15, align 8
  call void @sharkd_json_value_string(ptr noundef null, ptr noundef %55)
  br label %56

56:                                               ; preds = %54
  %57 = load i32, ptr %14, align 4
  %58 = add i32 %57, 1
  store i32 %58, ptr %14, align 4
  br label %49, !llvm.loop !46

59:                                               ; preds = %49
  call void @sharkd_json_array_close()
  br label %60

60:                                               ; preds = %59, %44, %36
  %61 = load ptr, ptr %12, align 8
  %62 = getelementptr inbounds nuw %struct._frame_data, ptr %61, i32 0, i32 11
  %63 = load i16, ptr %62, align 1
  %64 = lshr i16 %63, 6
  %65 = and i16 %64, 1
  %66 = zext i16 %65 to i32
  %67 = icmp ne i32 %66, 0
  br i1 %67, label %68, label %69

68:                                               ; preds = %60
  call void (ptr, ptr, ...) @sharkd_json_value_anyf(ptr noundef @.str.199, ptr noundef @.str.110)
  br label %69

69:                                               ; preds = %68, %60
  %70 = load ptr, ptr %12, align 8
  %71 = getelementptr inbounds nuw %struct._frame_data, ptr %70, i32 0, i32 11
  %72 = load i16, ptr %71, align 1
  %73 = lshr i16 %72, 4
  %74 = and i16 %73, 1
  %75 = zext i16 %74 to i32
  %76 = icmp ne i32 %75, 0
  br i1 %76, label %77, label %78

77:                                               ; preds = %69
  call void (ptr, ptr, ...) @sharkd_json_value_anyf(ptr noundef @.str.200, ptr noundef @.str.110)
  br label %78

78:                                               ; preds = %77, %69
  %79 = load ptr, ptr %12, align 8
  %80 = getelementptr inbounds nuw %struct._frame_data, ptr %79, i32 0, i32 9
  %81 = load ptr, ptr %80, align 8
  %82 = icmp ne ptr %81, null
  br i1 %82, label %83, label %94

83:                                               ; preds = %78
  %84 = load ptr, ptr %12, align 8
  %85 = getelementptr inbounds nuw %struct._frame_data, ptr %84, i32 0, i32 9
  %86 = load ptr, ptr %85, align 8
  %87 = getelementptr inbounds nuw %struct._color_filter, ptr %86, i32 0, i32 2
  %88 = call i32 @color_t_to_rgb(ptr noundef %87)
  call void (ptr, ptr, ...) @sharkd_json_value_stringf(ptr noundef @.str.201, ptr noundef @.str.202, i32 noundef %88)
  %89 = load ptr, ptr %12, align 8
  %90 = getelementptr inbounds nuw %struct._frame_data, ptr %89, i32 0, i32 9
  %91 = load ptr, ptr %90, align 8
  %92 = getelementptr inbounds nuw %struct._color_filter, ptr %91, i32 0, i32 3
  %93 = call i32 @color_t_to_rgb(ptr noundef %92)
  call void (ptr, ptr, ...) @sharkd_json_value_stringf(ptr noundef @.str.203, ptr noundef @.str.202, i32 noundef %93)
  br label %94

94:                                               ; preds = %83, %78
  %95 = load ptr, ptr %13, align 8
  call void @wtap_block_unref(ptr noundef %95)
  call void @json_dumper_end_object(ptr noundef @dumper)
  call void @llvm.lifetime.end.p0(i64 8, ptr %15) #21
  call void @llvm.lifetime.end.p0(i64 4, ptr %14) #21
  call void @llvm.lifetime.end.p0(i64 8, ptr %13) #21
  call void @llvm.lifetime.end.p0(i64 8, ptr %12) #21
  call void @llvm.lifetime.end.p0(i64 8, ptr %11) #21
  ret void
}