; Function Attrs: null_pointer_is_valid sspstrong uwtable
define internal void @sharkd_session_process_frames_cb(ptr noundef readonly captures(none) %0, ptr readnone captures(none) %1, ptr noundef %2, ptr readnone captures(none) %3, ptr readnone captures(none) %4) #0 {
  %6 = alloca ptr, align 8
  %7 = getelementptr inbounds nuw i8, ptr %0, i64 104
  %8 = load ptr, ptr %7, align 8
  call void @llvm.lifetime.start.p0(i64 8, ptr nonnull %6) #17
  store ptr null, ptr %6, align 8
  tail call void @json_dumper_begin_object(ptr noundef nonnull @dumper)
  tail call void @json_dumper_set_member_name(ptr noundef nonnull @dumper, ptr noundef nonnull @.str.195)
  tail call void @json_dumper_begin_array(ptr noundef nonnull @dumper)
  %9 = getelementptr inbounds nuw i8, ptr %2, i64 8
  %10 = load i32, ptr %9, align 8
  %11 = icmp sgt i32 %10, 0
  br i1 %11, label %.lr.ph, label %._crit_edge

._crit_edge:                                      ; preds = %.lr.ph, %5
  tail call void @json_dumper_end_array(ptr noundef nonnull @dumper)
  %12 = getelementptr inbounds nuw i8, ptr %0, i64 44
  %13 = load i32, ptr %12, align 4
  tail call void (ptr, ptr, ...) @sharkd_json_value_anyf(ptr noundef nonnull @.str.196, ptr noundef nonnull @.str.123, i32 noundef %13)
  %14 = tail call ptr @sharkd_get_packet_block(ptr noundef %8)
  %.not = icmp eq ptr %14, null
  br i1 %.not, label %29, label %19

.lr.ph:                                           ; preds = %5, %.lr.ph
  %.025 = phi i32 [ %16, %.lr.ph ], [ 0, %5 ]
  %15 = tail call ptr @get_column_text(ptr noundef %2, i32 noundef %.025)
  tail call void @json_dumper_value_string(ptr noundef nonnull @dumper, ptr noundef %15)
  %16 = add nuw nsw i32 %.025, 1
  %17 = load i32, ptr %9, align 8
  %18 = icmp slt i32 %16, %17
  br i1 %18, label %.lr.ph, label %._crit_edge, !llvm.loop !46

19:                                               ; preds = %._crit_edge
  %20 = call i32 @wtap_block_get_nth_string_option_value(ptr noundef nonnull %14, i32 noundef 1, i32 noundef 0, ptr noundef nonnull %6)
  %21 = icmp eq i32 %20, 0
  br i1 %21, label %22, label %29

22:                                               ; preds = %19
  call void (ptr, ptr, ...) @sharkd_json_value_anyf(ptr noundef nonnull @.str.197, ptr noundef nonnull @.str.110)
  call void @json_dumper_set_member_name(ptr noundef nonnull @dumper, ptr noundef nonnull @.str.198)
  call void @json_dumper_begin_array(ptr noundef nonnull @dumper)
  %23 = call i32 @wtap_block_get_nth_string_option_value(ptr noundef nonnull %14, i32 noundef 1, i32 noundef 0, ptr noundef nonnull %6)
  %24 = icmp eq i32 %23, 0
  br i1 %24, label %.lr.ph28, label %._crit_edge29

.lr.ph28:                                         ; preds = %22, %.lr.ph28
  %.01926 = phi i32 [ %26, %.lr.ph28 ], [ 0, %22 ]
  %25 = load ptr, ptr %6, align 8
  call void @json_dumper_value_string(ptr noundef nonnull @dumper, ptr noundef %25)
  %26 = add i32 %.01926, 1
  %27 = call i32 @wtap_block_get_nth_string_option_value(ptr noundef nonnull %14, i32 noundef 1, i32 noundef %26, ptr noundef nonnull %6)
  %28 = icmp eq i32 %27, 0
  br i1 %28, label %.lr.ph28, label %._crit_edge29, !llvm.loop !47

._crit_edge29:                                    ; preds = %.lr.ph28, %22
  call void @json_dumper_end_array(ptr noundef nonnull @dumper)
  br label %29

29:                                               ; preds = %._crit_edge29, %19, %._crit_edge
  %30 = getelementptr inbounds nuw i8, ptr %8, i64 57
  %31 = load i16, ptr %30, align 1
  %32 = and i16 %31, 64
  %.not22 = icmp eq i16 %32, 0
  br i1 %.not22, label %34, label %33

33:                                               ; preds = %29
  call void (ptr, ptr, ...) @sharkd_json_value_anyf(ptr noundef nonnull @.str.199, ptr noundef nonnull @.str.110)
  %.pre = load i16, ptr %30, align 1
  br label %34

34:                                               ; preds = %33, %29
  %35 = phi i16 [ %.pre, %33 ], [ %31, %29 ]
  %36 = and i16 %35, 16
  %.not23 = icmp eq i16 %36, 0
  br i1 %.not23, label %38, label %37

37:                                               ; preds = %34
  call void (ptr, ptr, ...) @sharkd_json_value_anyf(ptr noundef nonnull @.str.200, ptr noundef nonnull @.str.110)
  br label %38

38:                                               ; preds = %37, %34
  %39 = getelementptr inbounds nuw i8, ptr %8, i64 48
  %40 = load ptr, ptr %39, align 8
  %.not24 = icmp eq ptr %40, null
  br i1 %.not24, label %73, label %41

41:                                               ; preds = %38
  %42 = getelementptr inbounds nuw i8, ptr %40, i64 16
  %43 = load i16, ptr %42, align 2
  %44 = lshr i16 %43, 8
  %45 = zext nneg i16 %44 to i32
  %46 = shl nuw nsw i32 %45, 16
  %47 = getelementptr inbounds nuw i8, ptr %40, i64 18
  %48 = load i16, ptr %47, align 2
  %49 = and i16 %48, -256
  %50 = zext i16 %49 to i32
  %51 = or disjoint i32 %46, %50
  %52 = getelementptr inbounds nuw i8, ptr %40, i64 20
  %53 = load i16, ptr %52, align 2
  %54 = lshr i16 %53, 8
  %55 = zext nneg i16 %54 to i32
  %56 = or disjoint i32 %51, %55
  call void (ptr, ptr, ...) @sharkd_json_value_stringf(ptr noundef nonnull @.str.201, ptr noundef nonnull @.str.202, i32 noundef %56)
  %57 = load ptr, ptr %39, align 8
  %58 = getelementptr inbounds nuw i8, ptr %57, i64 22
  %59 = load i16, ptr %58, align 2
  %60 = lshr i16 %59, 8
  %61 = zext nneg i16 %60 to i32
  %62 = shl nuw nsw i32 %61, 16
  %63 = getelementptr inbounds nuw i8, ptr %57, i64 24
  %64 = load i16, ptr %63, align 2
  %65 = and i16 %64, -256
  %66 = zext i16 %65 to i32
  %67 = or disjoint i32 %62, %66
  %68 = getelementptr inbounds nuw i8, ptr %57, i64 26
  %69 = load i16, ptr %68, align 2
  %70 = lshr i16 %69, 8
  %71 = zext nneg i16 %70 to i32
  %72 = or disjoint i32 %67, %71
  call void (ptr, ptr, ...) @sharkd_json_value_stringf(ptr noundef nonnull @.str.203, ptr noundef nonnull @.str.202, i32 noundef %72)
  br label %73

73:                                               ; preds = %41, %38
  call void @wtap_block_unref(ptr noundef %14)
  call void @json_dumper_end_object(ptr noundef nonnull @dumper)
  call void @llvm.lifetime.end.p0(i64 8, ptr nonnull %6) #17
  ret void
}